(dp1
S'files'
p2
(dp3
S'celerytest_models'
p4
(dp5
S'index'
p6
(dp7
S'html_filename'
p8
S'celerytest_models.html'
p9
sS'name'
p10
S'celerytest/models'
p11
sS'nums'
p12
ccopy_reg
_reconstructor
p13
(ccoverage.results
Numbers
p14
c__builtin__
object
p15
NtRp16
(dp17
S'n_files'
p18
I1
sS'n_branches'
p19
I0
sS'n_statements'
p20
I1
sS'n_excluded'
p21
I0
sS'n_partial_branches'
p22
I0
sS'n_missing'
p23
I0
sS'n_missing_branches'
p24
I0
sbssS'hash'
p25
S'\xd5M\xc7\x8c\x14P\xcc\xf0D\xe4\x95\xf6\x03`\xf1a'
p26
ssS'celerytest_tests'
p27
(dp28
g6
(dp29
g8
S'celerytest_tests.html'
p30
sg10
S'celerytest/tests'
p31
sg12
g13
(g14
g15
NtRp32
(dp33
g18
I1
sg19
I0
sg20
I1
sg21
I0
sg22
I0
sg23
I1
sg24
I0
sbssg25
S']\x1b\xa4\x10\x8a\xf9.\x84\xd5\xb1b>D\xf6\xa9\xc5'
p34
ssS'BlogApp_migrations_0008_auto_20150708_1514'
p35
(dp36
g6
(dp37
g8
S'BlogApp_migrations_0008_auto_20150708_1514.html'
p38
sg10
S'BlogApp/migrations/0008_auto_20150708_1514'
p39
sg12
g13
(g14
g15
NtRp40
(dp41
g18
I1
sg19
I0
sg20
I5
sg21
I0
sg22
I0
sg23
I0
sg24
I0
sbssg25
S'\x1b\x1e\x17x\xbeE\xaa\x1cl0\xce\x00I\xde\xb18'
p42
ssS'BlogApp_migrations_0023_auto_20150730_0930'
p43
(dp44
g6
(dp45
g8
S'BlogApp_migrations_0023_auto_20150730_0930.html'
p46
sg10
S'BlogApp/migrations/0023_auto_20150730_0930'
p47
sg12
g13
(g14
g15
NtRp48
(dp49
g18
I1
sg19
I0
sg20
I5
sg21
I0
sg22
I0
sg23
I0
sg24
I0
sbssg25
S'\x11(\xe4\xc0O\xc2\x16\\p\xfc\x9d\xed\xd4@r\x99'
p50
ssS'BlogApp_migrations_0012_auto_20150713_1451'
p51
(dp52
g6
(dp53
g8
S'BlogApp_migrations_0012_auto_20150713_1451.html'
p54
sg10
S'BlogApp/migrations/0012_auto_20150713_1451'
p55
sg12
g13
(g14
g15
NtRp56
(dp57
g18
I1
sg19
I0
sg20
I5
sg21
I0
sg22
I0
sg23
I0
sg24
I0
sbssg25
S'}\xc0\xf8\x95\x96\x89\xc1\xaa\xae\x9c\x95$\xc2t7\xf5'
p58
ssS'celerytest_tasks'
p59
(dp60
g6
(dp61
g8
S'celerytest_tasks.html'
p62
sg10
S'celerytest/tasks'
p63
sg12
g13
(g14
g15
NtRp64
(dp65
g18
I1
sg19
I0
sg20
I3
sg21
I0
sg22
I0
sg23
I3
sg24
I0
sbssg25
S'Q\xc3D1{\xa81\x85bgi\x06\xcf\xc25\x84'
p66
ssS'BlogApp_migrations_0013_auto_20150716_0916'
p67
(dp68
g6
(dp69
g8
S'BlogApp_migrations_0013_auto_20150716_0916.html'
p70
sg10
S'BlogApp/migrations/0013_auto_20150716_0916'
p71
sg12
g13
(g14
g15
NtRp72
(dp73
g18
I1
sg19
I0
sg20
I6
sg21
I0
sg22
I0
sg23
I0
sg24
I0
sbssg25
S'\x17\xba\xf87\xa8\x9eu\xf5\xd1\x1b\x1a\xb3h\x1d]\n'
p74
ssS'BlogApp_migrations_0022_auto_20150730_0929'
p75
(dp76
g6
(dp77
g8
S'BlogApp_migrations_0022_auto_20150730_0929.html'
p78
sg10
S'BlogApp/migrations/0022_auto_20150730_0929'
p79
sg12
g13
(g14
g15
NtRp80
(dp81
g18
I1
sg19
I0
sg20
I5
sg21
I0
sg22
I0
sg23
I0
sg24
I0
sbssg25
S'\xf9\xc0\xbc\x1f\x8e9\xa2\x11\xed\x1a\x1a\x0f9\xc3c\xa1'
p82
ssS'BlogApp_migrations_0003_auto_20150707_1443'
p83
(dp84
g6
(dp85
g8
S'BlogApp_migrations_0003_auto_20150707_1443.html'
p86
sg10
S'BlogApp/migrations/0003_auto_20150707_1443'
p87
sg12
g13
(g14
g15
NtRp88
(dp89
g18
I1
sg19
I0
sg20
I5
sg21
I0
sg22
I0
sg23
I0
sg24
I0
sbssg25
S'\x8c\xe0u\x8b\n\xccd\x88\x99b\x9a\xe7z\x84\x13\xb3'
p90
ssS'BlogProject_wsgi'
p91
(dp92
g6
(dp93
g8
S'BlogProject_wsgi.html'
p94
sg10
S'BlogProject/wsgi'
p95
sg12
g13
(g14
g15
NtRp96
(dp97
g18
I1
sg19
I0
sg20
I4
sg21
I0
sg22
I0
sg23
I4
sg24
I0
sbssg25
S'H\x98\xd6[T\x89\x05H?\xa4\xb0I\x96W\x86\xb7'
p98
ssS'BlogApp_tests'
p99
(dp100
g6
(dp101
g8
S'BlogApp_tests.html'
p102
sg10
S'BlogApp/tests'
p103
sg12
g13
(g14
g15
NtRp104
(dp105
g18
I1
sg19
I0
sg20
I1
sg21
I0
sg22
I0
sg23
I1
sg24
I0
sbssg25
S']\x1b\xa4\x10\x8a\xf9.\x84\xd5\xb1b>D\xf6\xa9\xc5'
p106
ssS'BlogApp_migrations_0001_initial'
p107
(dp108
g6
(dp109
g8
S'BlogApp_migrations_0001_initial.html'
p110
sg10
S'BlogApp/migrations/0001_initial'
p111
sg12
g13
(g14
g15
NtRp112
(dp113
g18
I1
sg19
I0
sg20
I5
sg21
I0
sg22
I0
sg23
I0
sg24
I0
sbssg25
S'\x81}X\xaan\xd1\xd6 \xfa3\x07\xa7\xeegY\x86'
p114
ssS'BlogApp_templatetags___init__'
p115
(dp116
g6
(dp117
g8
S'BlogApp_templatetags___init__.html'
p118
sg10
S'BlogApp/templatetags/__init__'
p119
sg12
g13
(g14
g15
NtRp120
(dp121
g18
I1
sg19
I0
sg20
I0
sg21
I0
sg22
I0
sg23
I0
sg24
I0
sbssg25
S'\xe5P\x11)^\xf4>1D.\x0e\x0b\xa1\xf8[+'
p122
ssS'BlogProject_views'
p123
(dp124
g6
(dp125
g8
S'BlogProject_views.html'
p126
sg10
S'BlogProject/views'
p127
sg12
g13
(g14
g15
NtRp128
(dp129
g18
I1
sg19
I0
sg20
I38
sg21
I0
sg22
I0
sg23
I24
sg24
I0
sbssg25
S'\x10jF\xaa\xfd\xb5\xb2J\xc5\x07\xc0X\xef\xc6\x85\xa9'
p130
ssS'BlogApp_migrations_0020_auto_20150729_1656'
p131
(dp132
g6
(dp133
g8
S'BlogApp_migrations_0020_auto_20150729_1656.html'
p134
sg10
S'BlogApp/migrations/0020_auto_20150729_1656'
p135
sg12
g13
(g14
g15
NtRp136
(dp137
g18
I1
sg19
I0
sg20
I7
sg21
I0
sg22
I0
sg23
I0
sg24
I0
sbssg25
S'\xae\xe6e\x03t\x12Ra\x93\x17\xb7\xda\xfb\x15\x97\xd6'
p138
ssS'BlogProject_forms'
p139
(dp140
g6
(dp141
g8
S'BlogProject_forms.html'
p142
sg10
S'BlogProject/forms'
p143
sg12
g13
(g14
g15
NtRp144
(dp145
g18
I1
sg19
I0
sg20
I11
sg21
I0
sg22
I0
sg23
I2
sg24
I0
sbssg25
S'\x94o\xd4J\x04[[\xf0hB*`zwO['
p146
ssS'BlogApp_migrations_0004_auto_20150707_1502'
p147
(dp148
g6
(dp149
g8
S'BlogApp_migrations_0004_auto_20150707_1502.html'
p150
sg10
S'BlogApp/migrations/0004_auto_20150707_1502'
p151
sg12
g13
(g14
g15
NtRp152
(dp153
g18
I1
sg19
I0
sg20
I5
sg21
I0
sg22
I0
sg23
I0
sg24
I0
sbssg25
S'J\xe3\x00\x0eG\x1d\xc9\xfd\x8cC\xe8\x8b\x1d\xb4\xe7\x82'
p154
ssS'BlogApp_migrations_0017_auto_20150723_1436'
p155
(dp156
g6
(dp157
g8
S'BlogApp_migrations_0017_auto_20150723_1436.html'
p158
sg10
S'BlogApp/migrations/0017_auto_20150723_1436'
p159
sg12
g13
(g14
g15
NtRp160
(dp161
g18
I1
sg19
I0
sg20
I5
sg21
I0
sg22
I0
sg23
I0
sg24
I0
sbssg25
S'f\x08m\x03N\x88\xf4\xb0h\xb4\xf0f\x84\x98\xdad'
p162
ssS'BlogApp_admin'
p163
(dp164
g6
(dp165
g8
S'BlogApp_admin.html'
p166
sg10
S'BlogApp/admin'
p167
sg12
g13
(g14
g15
NtRp168
(dp169
g18
I1
sg19
I0
sg20
I7
sg21
I0
sg22
I0
sg23
I0
sg24
I0
sbssg25
S'\xd0\x1e\x160\x15\xbe:\x11\xd8B\xfd\x91\xc8\xaa\x80\xfd'
p170
ssS'celerytest_migrations___init__'
p171
(dp172
g6
(dp173
g8
S'celerytest_migrations___init__.html'
p174
sg10
S'celerytest/migrations/__init__'
p175
sg12
g13
(g14
g15
NtRp176
(dp177
g18
I1
sg19
I0
sg20
I0
sg21
I0
sg22
I0
sg23
I0
sg24
I0
sbssg25
S'\xca\xf5\x9f\x7f\x88\xdfa\x831|T\x1d\xbc}\xa5v'
p178
ssS'BlogApp_migrations_0009_auto_20150710_1015'
p179
(dp180
g6
(dp181
g8
S'BlogApp_migrations_0009_auto_20150710_1015.html'
p182
sg10
S'BlogApp/migrations/0009_auto_20150710_1015'
p183
sg12
g13
(g14
g15
NtRp184
(dp185
g18
I1
sg19
I0
sg20
I7
sg21
I0
sg22
I0
sg23
I0
sg24
I0
sbssg25
S'\x06W\x1f\x06\xf5\xcd\xba\xd1\x8e\xef]br97\x98'
p186
ssS'BlogApp_migrations_0006_auto_20150708_0838'
p187
(dp188
g6
(dp189
g8
S'BlogApp_migrations_0006_auto_20150708_0838.html'
p190
sg10
S'BlogApp/migrations/0006_auto_20150708_0838'
p191
sg12
g13
(g14
g15
NtRp192
(dp193
g18
I1
sg19
I0
sg20
I5
sg21
I0
sg22
I0
sg23
I0
sg24
I0
sbssg25
S'\xa4\x0c\xe5\xfe-\x8dM^\x0fg\xb5\xac[\xde\xc5\xdd'
p194
ssS'BlogApp_migrations_0014_auto_20150716_0932'
p195
(dp196
g6
(dp197
g8
S'BlogApp_migrations_0014_auto_20150716_0932.html'
p198
sg10
S'BlogApp/migrations/0014_auto_20150716_0932'
p199
sg12
g13
(g14
g15
NtRp200
(dp201
g18
I1
sg19
I0
sg20
I7
sg21
I0
sg22
I0
sg23
I0
sg24
I0
sbssg25
S'\x94?8J\x0e\xd3?+\x1f.\xa0w\x12\x08\xfbG'
p202
ssS'BlogApp_migrations_0024_auto_20150730_1027'
p203
(dp204
g6
(dp205
g8
S'BlogApp_migrations_0024_auto_20150730_1027.html'
p206
sg10
S'BlogApp/migrations/0024_auto_20150730_1027'
p207
sg12
g13
(g14
g15
NtRp208
(dp209
g18
I1
sg19
I0
sg20
I6
sg21
I0
sg22
I0
sg23
I0
sg24
I0
sbssg25
S'mS\xa4\x99z\xd3E!;\xdez\x19\xa5\xea\xfc\x7f'
p210
ssS'BlogProject___init__'
p211
(dp212
g6
(dp213
g8
S'BlogProject___init__.html'
p214
sg10
S'BlogProject/__init__'
p215
sg12
g13
(g14
g15
NtRp216
(dp217
g18
I1
sg19
I0
sg20
I0
sg21
I0
sg22
I0
sg23
I0
sg24
I0
sbssg25
S'\xca\xf5\x9f\x7f\x88\xdfa\x831|T\x1d\xbc}\xa5v'
p218
ssS'BlogProject_urls'
p219
(dp220
g6
(dp221
g8
S'BlogProject_urls.html'
p222
sg10
S'BlogProject/urls'
p223
sg12
g13
(g14
g15
NtRp224
(dp225
g18
I1
sg19
I0
sg20
I7
sg21
I0
sg22
I0
sg23
I0
sg24
I0
sbssg25
S'7\xae\x1a\x1e\xdd\x08-7S\x88z\x90_\xdd\xb7\xfa'
p226
ssS'BlogApp_migrations_0019_auto_20150729_1645'
p227
(dp228
g6
(dp229
g8
S'BlogApp_migrations_0019_auto_20150729_1645.html'
p230
sg10
S'BlogApp/migrations/0019_auto_20150729_1645'
p231
sg12
g13
(g14
g15
NtRp232
(dp233
g18
I1
sg19
I0
sg20
I7
sg21
I0
sg22
I0
sg23
I0
sg24
I0
sbssg25
S'r\x84Jt\xab\nUw@*\xca\xf6\xbd1\x18$'
p234
ssS'manage'
p235
(dp236
g6
(dp237
g8
S'manage.html'
p238
sg10
g235
sg12
g13
(g14
g15
NtRp239
(dp240
g18
I1
sg19
I0
sg20
I6
sg21
I0
sg22
I0
sg23
I0
sg24
I0
sbssg25
S'\x02\xf0\xce\xe3\xd4\xf7|\xe1\x1c\x18\x15\xa1O\xb9\x18g'
p241
ssS'BlogApp___init__'
p242
(dp243
g6
(dp244
g8
S'BlogApp___init__.html'
p245
sg10
S'BlogApp/__init__'
p246
sg12
g13
(g14
g15
NtRp247
(dp248
g18
I1
sg19
I0
sg20
I0
sg21
I0
sg22
I0
sg23
I0
sg24
I0
sbssg25
S'\xca\xf5\x9f\x7f\x88\xdfa\x831|T\x1d\xbc}\xa5v'
p249
ssS'BlogApp_migrations_0010_auto_20150713_0846'
p250
(dp251
g6
(dp252
g8
S'BlogApp_migrations_0010_auto_20150713_0846.html'
p253
sg10
S'BlogApp/migrations/0010_auto_20150713_0846'
p254
sg12
g13
(g14
g15
NtRp255
(dp256
g18
I1
sg19
I0
sg20
I5
sg21
I0
sg22
I0
sg23
I0
sg24
I0
sbssg25
S'\x98 cKe{\xca;\xcc\xc8\xd4v.\xf9\x8c\xd9'
p257
ssS'celerytest_views'
p258
(dp259
g6
(dp260
g8
S'celerytest_views.html'
p261
sg10
S'celerytest/views'
p262
sg12
g13
(g14
g15
NtRp263
(dp264
g18
I1
sg19
I0
sg20
I1
sg21
I0
sg22
I0
sg23
I1
sg24
I0
sbssg25
S'\xab\x9bR\xdb\x89\xc6Q\x9e\xc8\xd7\xcf\xe4\xc8\xcb\x83\x0f'
p265
ssS'BlogApp_forms'
p266
(dp267
g6
(dp268
g8
S'BlogApp_forms.html'
p269
sg10
S'BlogApp/forms'
p270
sg12
g13
(g14
g15
NtRp271
(dp272
g18
I1
sg19
I0
sg20
I23
sg21
I0
sg22
I0
sg23
I0
sg24
I0
sbssg25
S'A\xfc\x1f\xdb\xe13ng\xa6\xcc\xdf\x04h\x0e\x07P'
p273
ssS'BlogApp_templatetags_friend_tag'
p274
(dp275
g6
(dp276
g8
S'BlogApp_templatetags_friend_tag.html'
p277
sg10
S'BlogApp/templatetags/friend_tag'
p278
sg12
g13
(g14
g15
NtRp279
(dp280
g18
I1
sg19
I0
sg20
I4
sg21
I0
sg22
I0
sg23
I4
sg24
I0
sbssg25
S'\xd7\xb4\x14\x95\xdc\x1f\x9an\xd7\xcb\xa6\x94H\x16\xf0g'
p281
ssS'BlogApp_urls'
p282
(dp283
g6
(dp284
g8
S'BlogApp_urls.html'
p285
sg10
S'BlogApp/urls'
p286
sg12
g13
(g14
g15
NtRp287
(dp288
g18
I1
sg19
I0
sg20
I4
sg21
I0
sg22
I0
sg23
I0
sg24
I0
sbssg25
S'\xac\xb0\xe5\xbdZP\xb0!\xddW\xda\x14\xbc\x97\xe6\x9d'
p289
ssS'BlogApp_migrations_0005_auto_20150708_0837'
p290
(dp291
g6
(dp292
g8
S'BlogApp_migrations_0005_auto_20150708_0837.html'
p293
sg10
S'BlogApp/migrations/0005_auto_20150708_0837'
p294
sg12
g13
(g14
g15
NtRp295
(dp296
g18
I1
sg19
I0
sg20
I5
sg21
I0
sg22
I0
sg23
I0
sg24
I0
sbssg25
S'\xc7WrAhU\xba\x94\x8d\xf2F\x80\x835\xa6\xab'
p297
ssS'BlogProject_settings'
p298
(dp299
g6
(dp300
g8
S'BlogProject_settings.html'
p301
sg10
S'BlogProject/settings'
p302
sg12
g13
(g14
g15
NtRp303
(dp304
g18
I1
sg19
I0
sg20
I34
sg21
I0
sg22
I0
sg23
I0
sg24
I0
sbssg25
S'\xb4t\xc8yt\xb1=$\xf8d\xadfh\x000\xec'
p305
ssS'celerytest_admin'
p306
(dp307
g6
(dp308
g8
S'celerytest_admin.html'
p309
sg10
S'celerytest/admin'
p310
sg12
g13
(g14
g15
NtRp311
(dp312
g18
I1
sg19
I0
sg20
I1
sg21
I0
sg22
I0
sg23
I0
sg24
I0
sbssg25
S'\xd4\xe9\x8c\x82\x9c\xa2eU\x87h\x8b\xbe!-\xe2\xdf'
p313
ssS'BlogApp_migrations_0015_auto_20150723_1359'
p314
(dp315
g6
(dp316
g8
S'BlogApp_migrations_0015_auto_20150723_1359.html'
p317
sg10
S'BlogApp/migrations/0015_auto_20150723_1359'
p318
sg12
g13
(g14
g15
NtRp319
(dp320
g18
I1
sg19
I0
sg20
I6
sg21
I0
sg22
I0
sg23
I0
sg24
I0
sbssg25
S'\xc4\x82\xd9\x88U%\r\x90\xee\x13\xa2o%\xbd\xf5\xf9'
p321
ssS'BlogApp_migrations_0002_blog_image'
p322
(dp323
g6
(dp324
g8
S'BlogApp_migrations_0002_blog_image.html'
p325
sg10
S'BlogApp/migrations/0002_blog_image'
p326
sg12
g13
(g14
g15
NtRp327
(dp328
g18
I1
sg19
I0
sg20
I5
sg21
I0
sg22
I0
sg23
I0
sg24
I0
sbssg25
S'O\xf6\x8cCp\xca\x01\x85B#d\xe7N/Au'
p329
ssS'BlogApp_migrations_0007_auto_20150708_1424'
p330
(dp331
g6
(dp332
g8
S'BlogApp_migrations_0007_auto_20150708_1424.html'
p333
sg10
S'BlogApp/migrations/0007_auto_20150708_1424'
p334
sg12
g13
(g14
g15
NtRp335
(dp336
g18
I1
sg19
I0
sg20
I5
sg21
I0
sg22
I0
sg23
I0
sg24
I0
sbssg25
S'(x\x8b\x07\xd9\xfd<\x18\xd3&7\x80\xe5\xbf\xfe#'
p337
ssS'BlogApp_migrations_0018_auto_20150729_1549'
p338
(dp339
g6
(dp340
g8
S'BlogApp_migrations_0018_auto_20150729_1549.html'
p341
sg10
S'BlogApp/migrations/0018_auto_20150729_1549'
p342
sg12
g13
(g14
g15
NtRp343
(dp344
g18
I1
sg19
I0
sg20
I6
sg21
I0
sg22
I0
sg23
I0
sg24
I0
sbssg25
S'\x1a\xaf\xba\x86\x13\x8e\xe3\xd2<\xe7\x92\xb5\xb6\x1a\n\xa9'
p345
ssS'BlogApp_templatetags_comment_tags'
p346
(dp347
g6
(dp348
g8
S'BlogApp_templatetags_comment_tags.html'
p349
sg10
S'BlogApp/templatetags/comment_tags'
p350
sg12
g13
(g14
g15
NtRp351
(dp352
g18
I1
sg19
I0
sg20
I7
sg21
I0
sg22
I0
sg23
I7
sg24
I0
sbssg25
S'\xc2\xcb\xc0[\xaaX\x1f\xda\xfe\xad\x1dr\xe1\xd9y\x13'
p353
ssS'BlogApp_models'
p354
(dp355
g6
(dp356
g8
S'BlogApp_models.html'
p357
sg10
S'BlogApp/models'
p358
sg12
g13
(g14
g15
NtRp359
(dp360
g18
I1
sg19
I0
sg20
I43
sg21
I0
sg22
I0
sg23
I6
sg24
I0
sbssg25
S'\xe7\xc0cO\xcb_\xc8I\x830y\xfc\x199\xb0e'
p361
ssS'celerytest___init__'
p362
(dp363
g6
(dp364
g8
S'celerytest___init__.html'
p365
sg10
S'celerytest/__init__'
p366
sg12
g13
(g14
g15
NtRp367
(dp368
g18
I1
sg19
I0
sg20
I0
sg21
I0
sg22
I0
sg23
I0
sg24
I0
sbssg25
S'\xca\xf5\x9f\x7f\x88\xdfa\x831|T\x1d\xbc}\xa5v'
p369
ssS'BlogApp_migrations_0016_auto_20150723_1424'
p370
(dp371
g6
(dp372
g8
S'BlogApp_migrations_0016_auto_20150723_1424.html'
p373
sg10
S'BlogApp/migrations/0016_auto_20150723_1424'
p374
sg12
g13
(g14
g15
NtRp375
(dp376
g18
I1
sg19
I0
sg20
I5
sg21
I0
sg22
I0
sg23
I0
sg24
I0
sbssg25
S'\x8b 6"\x18\xa6\x17\xaf\xcf/\xc4\x85Hu\xb7f'
p377
ssS'BlogApp_migrations_0021_auto_20150730_0859'
p378
(dp379
g6
(dp380
g8
S'BlogApp_migrations_0021_auto_20150730_0859.html'
p381
sg10
S'BlogApp/migrations/0021_auto_20150730_0859'
p382
sg12
g13
(g14
g15
NtRp383
(dp384
g18
I1
sg19
I0
sg20
I5
sg21
I0
sg22
I0
sg23
I0
sg24
I0
sbssg25
S'\xe0u8\xf2]`1\xee|\xfaD\x1b\xd3|\xfc7'
p385
ssS'BlogApp_migrations___init__'
p386
(dp387
g6
(dp388
g8
S'BlogApp_migrations___init__.html'
p389
sg10
S'BlogApp/migrations/__init__'
p390
sg12
g13
(g14
g15
NtRp391
(dp392
g18
I1
sg19
I0
sg20
I0
sg21
I0
sg22
I0
sg23
I0
sg24
I0
sbssg25
S'\xca\xf5\x9f\x7f\x88\xdfa\x831|T\x1d\xbc}\xa5v'
p393
ssS'BlogApp_migrations_0011_auto_20150713_0849'
p394
(dp395
g6
(dp396
g8
S'BlogApp_migrations_0011_auto_20150713_0849.html'
p397
sg10
S'BlogApp/migrations/0011_auto_20150713_0849'
p398
sg12
g13
(g14
g15
NtRp399
(dp400
g18
I1
sg19
I0
sg20
I5
sg21
I0
sg22
I0
sg23
I0
sg24
I0
sbssg25
S'p*\xad\xef\xa3_\xec\x9e\x08@\xfeM*\xa0O\x99'
p401
ssS'BlogApp_templatetags_blog_tags'
p402
(dp403
g6
(dp404
g8
S'BlogApp_templatetags_blog_tags.html'
p405
sg10
S'BlogApp/templatetags/blog_tags'
p406
sg12
g13
(g14
g15
NtRp407
(dp408
g18
I1
sg19
I0
sg20
I4
sg21
I0
sg22
I0
sg23
I4
sg24
I0
sbssg25
S'\xe2!$\x88\xa3J\xd8\x0eH\xb8\x03\xf4\xe3\x96\xc9e'
p409
ssS'BlogApp_views'
p410
(dp411
g6
(dp412
g8
S'BlogApp_views.html'
p413
sg10
S'BlogApp/views'
p414
sg12
g13
(g14
g15
NtRp415
(dp416
g18
I1
sg19
I0
sg20
I106
sg21
I0
sg22
I0
sg23
I79
sg24
I0
sbssg25
S'\xab\x9d\xc5\xedL\xab\xb4d\x0e\x804\xfd&{\xdc\xb4'
p417
sssS'version'
p418
S'3.7.1'
p419
sS'settings'
p420
S'\x98\xa8x\xfe"r\xb5K\x98\xb1N\\\x99\x9e\xf3\xe5'
p421
sS'format'
p422
I1
s.